target datalayout = "e-m:e-p270:32:32-p271:32:32-p272:64:64-i64:64-i128:128-f80:128-n8:16:32:64-S128"
target triple = "x86_64-pc-linux-gnu"

%struct.H5O_linfo_t = type { i8, i8, i64, i64, i64, i64, i64 }
%struct.H5O_link_t = type { i32, i8, i64, i32, ptr, %union.anon.0 }
%union.anon.0 = type { %struct.H5O_link_ud_t }
%struct.H5O_link_ud_t = type { ptr, i64 }
%struct.H5G_link_table_t = type { i64, ptr }
%struct.H5G_bt2_ud_lbi_t = type { ptr, ptr, ptr }

@.str = private unnamed_addr constant [102 x i8] c"generated/home/dtcxzyw/WorkSpace/Projects/compilers/llvm-opt-benchmark/bench/hdf5/hdf5/src/H5Gdense.c\00", align 1
@H5E_SYM_g = external global i64, align 8
@H5E_CANTGET_g = external global i64, align 8
@H5E_CLOSEERROR_g = external global i64, align 8
@.str.8 = private unnamed_addr constant [25 x i8] c"can't close fractal heap\00", align 1
@H5E_CANTOPENOBJ_g = external global i64, align 8
@.str.15 = private unnamed_addr constant [28 x i8] c"unable to open fractal heap\00", align 1
@H5E_CANTINSERT_g = external global i64, align 8
@__func__.H5G__dense_lookup_by_idx = private unnamed_addr constant [25 x i8] c"H5G__dense_lookup_by_idx\00", align 1
@.str.22 = private unnamed_addr constant [35 x i8] c"unable to open v2 B-tree for index\00", align 1
@.str.23 = private unnamed_addr constant [31 x i8] c"unable to locate link in index\00", align 1
@.str.24 = private unnamed_addr constant [30 x i8] c"error building table of links\00", align 1
@H5E_ARGS_g = external global i64, align 8
@H5E_BADVALUE_g = external global i64, align 8
@.str.25 = private unnamed_addr constant [19 x i8] c"index out of bound\00", align 1
@H5E_CANTCOPY_g = external global i64, align 8
@.str.26 = private unnamed_addr constant [24 x i8] c"can't copy link message\00", align 1
@.str.27 = private unnamed_addr constant [32 x i8] c"can't close v2 B-tree for index\00", align 1
@H5E_CANTFREE_g = external global i64, align 8
@.str.28 = private unnamed_addr constant [29 x i8] c"unable to release link table\00", align 1

; Function Attrs: nounwind uwtable
define i32 @H5G__dense_lookup_by_idx(ptr noundef %0, ptr noundef %1, i32 noundef %2, i32 noundef %3, i64 noundef %4, ptr noundef %5) #0 {
  %7 = alloca ptr, align 8
  %8 = alloca ptr, align 8
  %9 = alloca i32, align 4
  %10 = alloca i32, align 4
  %11 = alloca i64, align 8
  %12 = alloca ptr, align 8
  %13 = alloca ptr, align 8
  %14 = alloca %struct.H5G_link_table_t, align 8
  %15 = alloca ptr, align 8
  %16 = alloca i64, align 8
  %17 = alloca i32, align 4
  %18 = alloca i8, align 1
  %19 = alloca %struct.H5G_bt2_ud_lbi_t, align 8
  store ptr %0, ptr %7, align 8
  store ptr %1, ptr %8, align 8
  store i32 %2, ptr %9, align 4
  store i32 %3, ptr %10, align 4
  store i64 %4, ptr %11, align 8
  store ptr %5, ptr %12, align 8
  store ptr null, ptr %13, align 8
  call void @llvm.memset.p0.i64(ptr align 8 %14, i8 0, i64 16, i1 false)
  store ptr null, ptr %15, align 8
  store i32 0, ptr %17, align 4
  store i8 0, ptr %18, align 1
  %20 = load i32, ptr %9, align 4
  %21 = icmp eq i32 %20, 0
  br i1 %21, label %22, label %23

22:                                               ; preds = %6
  store i64 -1, ptr %16, align 8
  br label %27

23:                                               ; preds = %6
  %24 = load ptr, ptr %8, align 8
  %25 = getelementptr inbounds %struct.H5O_linfo_t, ptr %24, i32 0, i32 3
  %26 = load i64, ptr %25, align 8
  store i64 %26, ptr %16, align 8
  br label %27

27:                                               ; preds = %23, %22
  %28 = load i32, ptr %10, align 4
  %29 = icmp eq i32 %28, 2
  br i1 %29, label %30, label %37

30:                                               ; preds = %27
  %31 = load i64, ptr %16, align 8
  %32 = icmp ne i64 %31, -1
  br i1 %32, label %37, label %33

33:                                               ; preds = %30
  %34 = load ptr, ptr %8, align 8
  %35 = getelementptr inbounds %struct.H5O_linfo_t, ptr %34, i32 0, i32 6
  %36 = load i64, ptr %35, align 8
  store i64 %36, ptr %16, align 8
  br label %37

37:                                               ; preds = %33, %30, %27
  %38 = load i64, ptr %16, align 8
  %39 = icmp ne i64 %38, -1
  br i1 %39, label %40, label %110

40:                                               ; preds = %37
  %41 = load ptr, ptr %7, align 8
  %42 = load ptr, ptr %8, align 8
  %43 = getelementptr inbounds %struct.H5O_linfo_t, ptr %42, i32 0, i32 5
  %44 = load i64, ptr %43, align 8
  %45 = call ptr @H5HF_open(ptr noundef %41, i64 noundef %44)
  store ptr %45, ptr %13, align 8
  %46 = icmp eq ptr null, %45
  br i1 %46, label %47, label %62

47:                                               ; preds = %40
  br label %48

48:                                               ; preds = %47
  br label %49

49:                                               ; preds = %48
  br label %50

50:                                               ; preds = %49
  %51 = load i64, ptr @H5E_SYM_g, align 8
  %52 = load i64, ptr @H5E_CANTOPENOBJ_g, align 8
  %53 = call i32 (ptr, ptr, i32, i64, i64, ptr, ...) @H5E_printf_stack(ptr noundef @.str, ptr noundef @__func__.H5G__dense_lookup_by_idx, i32 noundef 654, i64 noundef %51, i64 noundef %52, ptr noundef @.str.15)
  br label %54

54:                                               ; preds = %50
  store i8 1, ptr %18, align 1
  %55 = load i8, ptr %18, align 1
  %56 = trunc i8 %55 to i1
  %57 = zext i1 %56 to i8
  store i8 %57, ptr %18, align 1
  br label %58

58:                                               ; preds = %54
  br label %59

59:                                               ; preds = %58
  store i32 -1, ptr %17, align 4
  br label %177

60:                                               ; No predecessors!
  br label %61

61:                                               ; preds = %60
  br label %62

62:                                               ; preds = %61, %40
  %63 = load ptr, ptr %7, align 8
  %64 = load i64, ptr %16, align 8
  %65 = call ptr @H5B2_open(ptr noundef %63, i64 noundef %64, ptr noundef null)
  store ptr %65, ptr %15, align 8
  %66 = icmp eq ptr null, %65
  br i1 %66, label %67, label %82

67:                                               ; preds = %62
  br label %68

68:                                               ; preds = %67
  br label %69

69:                                               ; preds = %68
  br label %70

70:                                               ; preds = %69
  %71 = load i64, ptr @H5E_SYM_g, align 8
  %72 = load i64, ptr @H5E_CANTOPENOBJ_g, align 8
  %73 = call i32 (ptr, ptr, i32, i64, i64, ptr, ...) @H5E_printf_stack(ptr noundef @.str, ptr noundef @__func__.H5G__dense_lookup_by_idx, i32 noundef 658, i64 noundef %71, i64 noundef %72, ptr noundef @.str.22)
  br label %74

74:                                               ; preds = %70
  store i8 1, ptr %18, align 1
  %75 = load i8, ptr %18, align 1
  %76 = trunc i8 %75 to i1
  %77 = zext i1 %76 to i8
  store i8 %77, ptr %18, align 1
  br label %78

78:                                               ; preds = %74
  br label %79

79:                                               ; preds = %78
  store i32 -1, ptr %17, align 4
  br label %177

80:                                               ; No predecessors!
  br label %81

81:                                               ; preds = %80
  br label %82

82:                                               ; preds = %81, %62
  %83 = load ptr, ptr %7, align 8
  %84 = getelementptr inbounds %struct.H5G_bt2_ud_lbi_t, ptr %19, i32 0, i32 0
  store ptr %83, ptr %84, align 8
  %85 = load ptr, ptr %13, align 8
  %86 = getelementptr inbounds %struct.H5G_bt2_ud_lbi_t, ptr %19, i32 0, i32 1
  store ptr %85, ptr %86, align 8
  %87 = load ptr, ptr %12, align 8
  %88 = getelementptr inbounds %struct.H5G_bt2_ud_lbi_t, ptr %19, i32 0, i32 2
  store ptr %87, ptr %88, align 8
  %89 = load ptr, ptr %15, align 8
  %90 = load i32, ptr %10, align 4
  %91 = load i64, ptr %11, align 8
  %92 = call i32 @H5B2_index(ptr noundef %89, i32 noundef %90, i64 noundef %91, ptr noundef @H5G__dense_lookup_by_idx_bt2_cb, ptr noundef %19)
  %93 = icmp slt i32 %92, 0
  br i1 %93, label %94, label %109

94:                                               ; preds = %82
  br label %95

95:                                               ; preds = %94
  br label %96

96:                                               ; preds = %95
  br label %97

97:                                               ; preds = %96
  %98 = load i64, ptr @H5E_SYM_g, align 8
  %99 = load i64, ptr @H5E_CANTINSERT_g, align 8
  %100 = call i32 (ptr, ptr, i32, i64, i64, ptr, ...) @H5E_printf_stack(ptr noundef @.str, ptr noundef @__func__.H5G__dense_lookup_by_idx, i32 noundef 667, i64 noundef %98, i64 noundef %99, ptr noundef @.str.23)
  br label %101

101:                                              ; preds = %97
  store i8 1, ptr %18, align 1
  %102 = load i8, ptr %18, align 1
  %103 = trunc i8 %102 to i1
  %104 = zext i1 %103 to i8
  store i8 %104, ptr %18, align 1
  br label %105

105:                                              ; preds = %101
  br label %106

106:                                              ; preds = %105
  store i32 -1, ptr %17, align 4
  br label %177

107:                                              ; No predecessors!
  br label %108

108:                                              ; preds = %107
  br label %109

109:                                              ; preds = %108, %82
  br label %176

110:                                              ; preds = %37
  %111 = load ptr, ptr %7, align 8
  %112 = load ptr, ptr %8, align 8
  %113 = load i32, ptr %9, align 4
  %114 = load i32, ptr %10, align 4
  %115 = call i32 @H5G__dense_build_table(ptr noundef %111, ptr noundef %112, i32 noundef %113, i32 noundef %114, ptr noundef %14)
  %116 = icmp slt i32 %115, 0
  br i1 %116, label %117, label %132

117:                                              ; preds = %110
  br label %118

118:                                              ; preds = %117
  br label %119

119:                                              ; preds = %118
  br label %120

120:                                              ; preds = %119
  %121 = load i64, ptr @H5E_SYM_g, align 8
  %122 = load i64, ptr @H5E_CANTGET_g, align 8
  %123 = call i32 (ptr, ptr, i32, i64, i64, ptr, ...) @H5E_printf_stack(ptr noundef @.str, ptr noundef @__func__.H5G__dense_lookup_by_idx, i32 noundef 672, i64 noundef %121, i64 noundef %122, ptr noundef @.str.24)
  br label %124

124:                                              ; preds = %120
  store i8 1, ptr %18, align 1
  %125 = load i8, ptr %18, align 1
  %126 = trunc i8 %125 to i1
  %127 = zext i1 %126 to i8
  store i8 %127, ptr %18, align 1
  br label %128

128:                                              ; preds = %124
  br label %129

129:                                              ; preds = %128
  store i32 -1, ptr %17, align 4
  br label %177

130:                                              ; No predecessors!
  br label %131

131:                                              ; preds = %130
  br label %132

132:                                              ; preds = %131, %110
  %133 = load i64, ptr %11, align 8
  %134 = getelementptr inbounds %struct.H5G_link_table_t, ptr %14, i32 0, i32 0
  %135 = load i64, ptr %134, align 8
  %136 = icmp uge i64 %133, %135
  br i1 %136, label %137, label %152

137:                                              ; preds = %132
  br label %138

138:                                              ; preds = %137
  br label %139

139:                                              ; preds = %138
  br label %140

140:                                              ; preds = %139
  %141 = load i64, ptr @H5E_ARGS_g, align 8
  %142 = load i64, ptr @H5E_BADVALUE_g, align 8
  %143 = call i32 (ptr, ptr, i32, i64, i64, ptr, ...) @H5E_printf_stack(ptr noundef @.str, ptr noundef @__func__.H5G__dense_lookup_by_idx, i32 noundef 676, i64 noundef %141, i64 noundef %142, ptr noundef @.str.25)
  br label %144

144:                                              ; preds = %140
  store i8 1, ptr %18, align 1
  %145 = load i8, ptr %18, align 1
  %146 = trunc i8 %145 to i1
  %147 = zext i1 %146 to i8
  store i8 %147, ptr %18, align 1
  br label %148

148:                                              ; preds = %144
  br label %149

149:                                              ; preds = %148
  store i32 -1, ptr %17, align 4
  br label %177

150:                                              ; No predecessors!
  br label %151

151:                                              ; preds = %150
  br label %152

152:                                              ; preds = %151, %132
  %153 = getelementptr inbounds %struct.H5G_link_table_t, ptr %14, i32 0, i32 1
  %154 = load ptr, ptr %153, align 8
  %155 = load i64, ptr %11, align 8
  %156 = getelementptr inbounds %struct.H5O_link_t, ptr %154, i64 %155
  %157 = load ptr, ptr %12, align 8
  %158 = call ptr @H5O_msg_copy(i32 noundef 6, ptr noundef %156, ptr noundef %157)
  %159 = icmp eq ptr null, %158
  br i1 %159, label %160, label %175

160:                                              ; preds = %152
  br label %161

161:                                              ; preds = %160
  br label %162

162:                                              ; preds = %161
  br label %163

163:                                              ; preds = %162
  %164 = load i64, ptr @H5E_SYM_g, align 8
  %165 = load i64, ptr @H5E_CANTCOPY_g, align 8
  %166 = call i32 (ptr, ptr, i32, i64, i64, ptr, ...) @H5E_printf_stack(ptr noundef @.str, ptr noundef @__func__.H5G__dense_lookup_by_idx, i32 noundef 680, i64 noundef %164, i64 noundef %165, ptr noundef @.str.26)
  br label %167

167:                                              ; preds = %163
  store i8 1, ptr %18, align 1
  %168 = load i8, ptr %18, align 1
  %169 = trunc i8 %168 to i1
  %170 = zext i1 %169 to i8
  store i8 %170, ptr %18, align 1
  br label %171

171:                                              ; preds = %167
  br label %172

172:                                              ; preds = %171
  store i32 -1, ptr %17, align 4
  br label %177

173:                                              ; No predecessors!
  br label %174

174:                                              ; preds = %173
  br label %175

175:                                              ; preds = %174, %152
  br label %176

176:                                              ; preds = %175, %109
  br label %177

177:                                              ; preds = %176, %172, %149, %129, %106, %79, %59
  %178 = load ptr, ptr %13, align 8
  %179 = icmp ne ptr %178, null
  br i1 %179, label %180, label %197

180:                                              ; preds = %177
  %181 = load ptr, ptr %13, align 8
  %182 = call i32 @H5HF_close(ptr noundef %181)
  %183 = icmp slt i32 %182, 0
  br i1 %183, label %184, label %197

184:                                              ; preds = %180
  br label %185

185:                                              ; preds = %184
  br label %186

186:                                              ; preds = %185
  br label %187

187:                                              ; preds = %186
  %188 = load i64, ptr @H5E_SYM_g, align 8
  %189 = load i64, ptr @H5E_CLOSEERROR_g, align 8
  %190 = call i32 (ptr, ptr, i32, i64, i64, ptr, ...) @H5E_printf_stack(ptr noundef @.str, ptr noundef @__func__.H5G__dense_lookup_by_idx, i32 noundef 686, i64 noundef %188, i64 noundef %189, ptr noundef @.str.8)
  br label %191

191:                                              ; preds = %187
  store i8 1, ptr %18, align 1
  %192 = load i8, ptr %18, align 1
  %193 = trunc i8 %192 to i1
  %194 = zext i1 %193 to i8
  store i8 %194, ptr %18, align 1
  br label %195

195:                                              ; preds = %191
  store i32 -1, ptr %17, align 4
  br label %196

196:                                              ; preds = %195
  br label %197

197:                                              ; preds = %196, %180, %177
  %198 = load ptr, ptr %15, align 8
  %199 = icmp ne ptr %198, null
  br i1 %199, label %200, label %217

200:                                              ; preds = %197
  %201 = load ptr, ptr %15, align 8
  %202 = call i32 @H5B2_close(ptr noundef %201)
  %203 = icmp slt i32 %202, 0
  br i1 %203, label %204, label %217

204:                                              ; preds = %200
  br label %205

205:                                              ; preds = %204
  br label %206

206:                                              ; preds = %205
  br label %207

207:                                              ; preds = %206
  %208 = load i64, ptr @H5E_SYM_g, align 8
  %209 = load i64, ptr @H5E_CLOSEERROR_g, align 8
  %210 = call i32 (ptr, ptr, i32, i64, i64, ptr, ...) @H5E_printf_stack(ptr noundef @.str, ptr noundef @__func__.H5G__dense_lookup_by_idx, i32 noundef 688, i64 noundef %208, i64 noundef %209, ptr noundef @.str.27)
  br label %211

211:                                              ; preds = %207
  store i8 1, ptr %18, align 1
  %212 = load i8, ptr %18, align 1
  %213 = trunc i8 %212 to i1
  %214 = zext i1 %213 to i8
  store i8 %214, ptr %18, align 1
  br label %215

215:                                              ; preds = %211
  store i32 -1, ptr %17, align 4
  br label %216

216:                                              ; preds = %215
  br label %217

217:                                              ; preds = %216, %200, %197
  %218 = getelementptr inbounds %struct.H5G_link_table_t, ptr %14, i32 0, i32 1
  %219 = load ptr, ptr %218, align 8
  %220 = icmp ne ptr %219, null
  br i1 %220, label %221, label %237

221:                                              ; preds = %217
  %222 = call i32 @H5G__link_release_table(ptr noundef %14)
  %223 = icmp slt i32 %222, 0
  br i1 %223, label %224, label %237

224:                                              ; preds = %221
  br label %225

225:                                              ; preds = %224
  br label %226

226:                                              ; preds = %225
  br label %227

227:                                              ; preds = %226
  %228 = load i64, ptr @H5E_SYM_g, align 8
  %229 = load i64, ptr @H5E_CANTFREE_g, align 8
  %230 = call i32 (ptr, ptr, i32, i64, i64, ptr, ...) @H5E_printf_stack(ptr noundef @.str, ptr noundef @__func__.H5G__dense_lookup_by_idx, i32 noundef 690, i64 noundef %228, i64 noundef %229, ptr noundef @.str.28)
  br label %231

231:                                              ; preds = %227
  store i8 1, ptr %18, align 1
  %232 = load i8, ptr %18, align 1
  %233 = trunc i8 %232 to i1
  %234 = zext i1 %233 to i8
  store i8 %234, ptr %18, align 1
  br label %235

235:                                              ; preds = %231
  store i32 -1, ptr %17, align 4
  br label %236

236:                                              ; preds = %235
  br label %237

237:                                              ; preds = %236, %221, %217
  %238 = load i32, ptr %17, align 4
  ret i32 %238
}