; Function Attrs: nounwind uwtable
define range(i32 -1, 1) i32 @H5G__dense_lookup_by_idx(ptr noundef %0, ptr nocapture noundef readonly %1, i32 noundef %2, i32 noundef %3, i64 noundef %4, ptr noundef %5) local_unnamed_addr #0 {
  %7 = alloca %struct.H5G_link_table_t, align 8
  %8 = alloca %struct.H5G_bt2_ud_lbi_t, align 8
  call void @llvm.memset.p0.i64(ptr noundef nonnull align 8 dereferenceable(16) %7, i8 0, i64 16, i1 false)
  %9 = icmp eq i32 %2, 0
  br i1 %9, label %13, label %10

10:                                               ; preds = %6
  %11 = getelementptr inbounds i8, ptr %1, i64 16
  %12 = load i64, ptr %11, align 8
  br label %13

13:                                               ; preds = %6, %10
  %.037 = phi i64 [ %12, %10 ], [ -1, %6 ]
  %14 = icmp ne i32 %3, 2
  %15 = icmp ne i64 %.037, -1
  %or.cond = select i1 %14, i1 true, i1 %15
  br i1 %or.cond, label %19, label %16

16:                                               ; preds = %13
  %17 = getelementptr inbounds i8, ptr %1, i64 40
  %18 = load i64, ptr %17, align 8
  br label %19

19:                                               ; preds = %16, %13
  %.138 = phi i64 [ %.037, %13 ], [ %18, %16 ]
  %.not = icmp eq i64 %.138, -1
  br i1 %.not, label %45, label %20

20:                                               ; preds = %19
  %21 = getelementptr inbounds i8, ptr %1, i64 32
  %22 = load i64, ptr %21, align 8
  %23 = tail call ptr @H5HF_open(ptr noundef %0, i64 noundef %22) #8
  %24 = icmp eq ptr %23, null
  br i1 %24, label %25, label %29

25:                                               ; preds = %20
  %26 = load i64, ptr @H5E_SYM_g, align 8
  %27 = load i64, ptr @H5E_CANTOPENOBJ_g, align 8
  %28 = tail call i32 (ptr, ptr, i32, i64, i64, ptr, ...) @H5E_printf_stack(ptr noundef nonnull @.str, ptr noundef nonnull @__func__.H5G__dense_lookup_by_idx, i32 noundef 654, i64 noundef %26, i64 noundef %27, ptr noundef nonnull @.str.15) #8
  br label %.thread55

29:                                               ; preds = %20
  %30 = tail call ptr @H5B2_open(ptr noundef %0, i64 noundef %.138, ptr noundef null) #8
  %31 = icmp eq ptr %30, null
  br i1 %31, label %32, label %36

32:                                               ; preds = %29
  %33 = load i64, ptr @H5E_SYM_g, align 8
  %34 = load i64, ptr @H5E_CANTOPENOBJ_g, align 8
  %35 = tail call i32 (ptr, ptr, i32, i64, i64, ptr, ...) @H5E_printf_stack(ptr noundef nonnull @.str, ptr noundef nonnull @__func__.H5G__dense_lookup_by_idx, i32 noundef 658, i64 noundef %33, i64 noundef %34, ptr noundef nonnull @.str.22) #8
  br label %68

36:                                               ; preds = %29
  store ptr %0, ptr %8, align 8
  %37 = getelementptr inbounds i8, ptr %8, i64 8
  store ptr %23, ptr %37, align 8
  %38 = getelementptr inbounds i8, ptr %8, i64 16
  store ptr %5, ptr %38, align 8
  %39 = call i32 @H5B2_index(ptr noundef nonnull %30, i32 noundef %3, i64 noundef %4, ptr noundef nonnull @H5G__dense_lookup_by_idx_bt2_cb, ptr noundef nonnull %8) #8
  %40 = icmp slt i32 %39, 0
  br i1 %40, label %41, label %68

41:                                               ; preds = %36
  %42 = load i64, ptr @H5E_SYM_g, align 8
  %43 = load i64, ptr @H5E_CANTINSERT_g, align 8
  %44 = call i32 (ptr, ptr, i32, i64, i64, ptr, ...) @H5E_printf_stack(ptr noundef nonnull @.str, ptr noundef nonnull @__func__.H5G__dense_lookup_by_idx, i32 noundef 667, i64 noundef %42, i64 noundef %43, ptr noundef nonnull @.str.23) #8
  br label %68

45:                                               ; preds = %19
  %46 = call i32 @H5G__dense_build_table(ptr noundef %0, ptr noundef %1, i32 noundef %2, i32 noundef %3, ptr noundef nonnull %7)
  %47 = icmp slt i32 %46, 0
  br i1 %47, label %48, label %52

48:                                               ; preds = %45
  %49 = load i64, ptr @H5E_SYM_g, align 8
  %50 = load i64, ptr @H5E_CANTGET_g, align 8
  %51 = call i32 (ptr, ptr, i32, i64, i64, ptr, ...) @H5E_printf_stack(ptr noundef nonnull @.str, ptr noundef nonnull @__func__.H5G__dense_lookup_by_idx, i32 noundef 672, i64 noundef %49, i64 noundef %50, ptr noundef nonnull @.str.24) #8
  br label %.thread55

52:                                               ; preds = %45
  %53 = load i64, ptr %7, align 8
  %.not46 = icmp ugt i64 %53, %4
  br i1 %.not46, label %58, label %54

54:                                               ; preds = %52
  %55 = load i64, ptr @H5E_ARGS_g, align 8
  %56 = load i64, ptr @H5E_BADVALUE_g, align 8
  %57 = call i32 (ptr, ptr, i32, i64, i64, ptr, ...) @H5E_printf_stack(ptr noundef nonnull @.str, ptr noundef nonnull @__func__.H5G__dense_lookup_by_idx, i32 noundef 676, i64 noundef %55, i64 noundef %56, ptr noundef nonnull @.str.25) #8
  br label %.thread55

58:                                               ; preds = %52
  %59 = getelementptr inbounds i8, ptr %7, i64 8
  %60 = load ptr, ptr %59, align 8
  %61 = getelementptr inbounds %struct.H5O_link_t, ptr %60, i64 %4
  %62 = call ptr @H5O_msg_copy(i32 noundef 6, ptr noundef %61, ptr noundef %5) #8
  %63 = icmp eq ptr %62, null
  br i1 %63, label %64, label %.thread55

64:                                               ; preds = %58
  %65 = load i64, ptr @H5E_SYM_g, align 8
  %66 = load i64, ptr @H5E_CANTCOPY_g, align 8
  %67 = call i32 (ptr, ptr, i32, i64, i64, ptr, ...) @H5E_printf_stack(ptr noundef nonnull @.str, ptr noundef nonnull @__func__.H5G__dense_lookup_by_idx, i32 noundef 680, i64 noundef %65, i64 noundef %66, ptr noundef nonnull @.str.26) #8
  br label %.thread55

68:                                               ; preds = %32, %41, %36
  %.0 = phi i32 [ -1, %32 ], [ -1, %41 ], [ 0, %36 ]
  %69 = call i32 @H5HF_close(ptr noundef nonnull %23) #8
  %70 = icmp slt i32 %69, 0
  br i1 %70, label %71, label %75

71:                                               ; preds = %68
  %72 = load i64, ptr @H5E_SYM_g, align 8
  %73 = load i64, ptr @H5E_CLOSEERROR_g, align 8
  %74 = call i32 (ptr, ptr, i32, i64, i64, ptr, ...) @H5E_printf_stack(ptr noundef nonnull @.str, ptr noundef nonnull @__func__.H5G__dense_lookup_by_idx, i32 noundef 686, i64 noundef %72, i64 noundef %73, ptr noundef nonnull @.str.8) #8
  br label %75

75:                                               ; preds = %71, %68
  %.1 = phi i32 [ -1, %71 ], [ %.0, %68 ]
  br i1 %31, label %.thread55, label %76

76:                                               ; preds = %75
  %77 = call i32 @H5B2_close(ptr noundef nonnull %30) #8
  %78 = icmp slt i32 %77, 0
  br i1 %78, label %79, label %.thread55

79:                                               ; preds = %76
  %80 = load i64, ptr @H5E_SYM_g, align 8
  %81 = load i64, ptr @H5E_CLOSEERROR_g, align 8
  %82 = call i32 (ptr, ptr, i32, i64, i64, ptr, ...) @H5E_printf_stack(ptr noundef nonnull @.str, ptr noundef nonnull @__func__.H5G__dense_lookup_by_idx, i32 noundef 688, i64 noundef %80, i64 noundef %81, ptr noundef nonnull @.str.27) #8
  br label %.thread55

.thread55:                                        ; preds = %25, %48, %54, %64, %58, %79, %76, %75
  %.2 = phi i32 [ -1, %79 ], [ %.1, %76 ], [ %.1, %75 ], [ 0, %58 ], [ -1, %64 ], [ -1, %54 ], [ -1, %48 ], [ -1, %25 ]
  %83 = getelementptr inbounds i8, ptr %7, i64 8
  %84 = load ptr, ptr %83, align 8
  %.not49 = icmp eq ptr %84, null
  br i1 %.not49, label %92, label %85

85:                                               ; preds = %.thread55
  %86 = call i32 @H5G__link_release_table(ptr noundef nonnull %7) #8
  %87 = icmp slt i32 %86, 0
  br i1 %87, label %88, label %92

88:                                               ; preds = %85
  %89 = load i64, ptr @H5E_SYM_g, align 8
  %90 = load i64, ptr @H5E_CANTFREE_g, align 8
  %91 = call i32 (ptr, ptr, i32, i64, i64, ptr, ...) @H5E_printf_stack(ptr noundef nonnull @.str, ptr noundef nonnull @__func__.H5G__dense_lookup_by_idx, i32 noundef 690, i64 noundef %89, i64 noundef %90, ptr noundef nonnull @.str.28) #8
  br label %92

92:                                               ; preds = %88, %85, %.thread55
  %.3 = phi i32 [ -1, %88 ], [ %.2, %85 ], [ %.2, %.thread55 ]
  ret i32 %.3
}